
ZH_2023_11_06.elf:     file format elf32-avr

Sections:
Idx Name          Size      VMA       LMA       File off  Algn
  0 .data         000000a8  00800100  00000812  000008a6  2**0
                  CONTENTS, ALLOC, LOAD, DATA
  1 .text         00000812  00000000  00000000  00000094  2**1
                  CONTENTS, ALLOC, LOAD, READONLY, CODE
  2 .bss          00000014  008001a8  008001a8  0000094e  2**0
                  ALLOC
  3 .comment      00000030  00000000  00000000  0000094e  2**0
                  CONTENTS, READONLY
  4 .note.gnu.avr.deviceinfo 0000003c  00000000  00000000  00000980  2**2
                  CONTENTS, READONLY
  5 .debug_aranges 000001b0  00000000  00000000  000009bc  2**0
                  CONTENTS, READONLY, DEBUGGING
  6 .debug_info   00001cc1  00000000  00000000  00000b6c  2**0
                  CONTENTS, READONLY, DEBUGGING
  7 .debug_abbrev 00000e67  00000000  00000000  0000282d  2**0
                  CONTENTS, READONLY, DEBUGGING
  8 .debug_line   00000f32  00000000  00000000  00003694  2**0
                  CONTENTS, READONLY, DEBUGGING
  9 .debug_frame  000003cc  00000000  00000000  000045c8  2**2
                  CONTENTS, READONLY, DEBUGGING
 10 .debug_str    000007dc  00000000  00000000  00004994  2**0
                  CONTENTS, READONLY, DEBUGGING
 11 .debug_loc    00000b1b  00000000  00000000  00005170  2**0
                  CONTENTS, READONLY, DEBUGGING
 12 .debug_ranges 00000168  00000000  00000000  00005c8b  2**0
                  CONTENTS, READONLY, DEBUGGING

Disassembly of section .text:

00000000 <__vectors>:
   0:	45 c0       	rjmp	.+138    	; 0x8c <__ctors_end>
   2:	00 00       	nop
   4:	60 c0       	rjmp	.+192    	; 0xc6 <__bad_interrupt>
   6:	00 00       	nop
   8:	5e c0       	rjmp	.+188    	; 0xc6 <__bad_interrupt>
   a:	00 00       	nop
   c:	5c c0       	rjmp	.+184    	; 0xc6 <__bad_interrupt>
   e:	00 00       	nop
  10:	5a c0       	rjmp	.+180    	; 0xc6 <__bad_interrupt>
  12:	00 00       	nop
  14:	58 c0       	rjmp	.+176    	; 0xc6 <__bad_interrupt>
  16:	00 00       	nop
  18:	56 c0       	rjmp	.+172    	; 0xc6 <__bad_interrupt>
  1a:	00 00       	nop
  1c:	54 c0       	rjmp	.+168    	; 0xc6 <__bad_interrupt>
  1e:	00 00       	nop
  20:	52 c0       	rjmp	.+164    	; 0xc6 <__bad_interrupt>
  22:	00 00       	nop
  24:	50 c0       	rjmp	.+160    	; 0xc6 <__bad_interrupt>
  26:	00 00       	nop
  28:	4e c0       	rjmp	.+156    	; 0xc6 <__bad_interrupt>
  2a:	00 00       	nop
  2c:	4c c0       	rjmp	.+152    	; 0xc6 <__bad_interrupt>
  2e:	00 00       	nop
  30:	54 c1       	rjmp	.+680    	; 0x2da <__vector_12>
  32:	00 00       	nop
  34:	48 c0       	rjmp	.+144    	; 0xc6 <__bad_interrupt>
  36:	00 00       	nop
  38:	46 c0       	rjmp	.+140    	; 0xc6 <__bad_interrupt>
  3a:	00 00       	nop
  3c:	1a c2       	rjmp	.+1076   	; 0x472 <__vector_15>
  3e:	00 00       	nop
  40:	42 c0       	rjmp	.+132    	; 0xc6 <__bad_interrupt>
  42:	00 00       	nop
  44:	40 c0       	rjmp	.+128    	; 0xc6 <__bad_interrupt>
  46:	00 00       	nop
  48:	3e c0       	rjmp	.+124    	; 0xc6 <__bad_interrupt>
  4a:	00 00       	nop
  4c:	3c c0       	rjmp	.+120    	; 0xc6 <__bad_interrupt>
  4e:	00 00       	nop
  50:	3a c0       	rjmp	.+116    	; 0xc6 <__bad_interrupt>
  52:	00 00       	nop
  54:	38 c0       	rjmp	.+112    	; 0xc6 <__bad_interrupt>
  56:	00 00       	nop
  58:	36 c0       	rjmp	.+108    	; 0xc6 <__bad_interrupt>
  5a:	00 00       	nop
  5c:	34 c0       	rjmp	.+104    	; 0xc6 <__bad_interrupt>
  5e:	00 00       	nop
  60:	32 c0       	rjmp	.+100    	; 0xc6 <__bad_interrupt>
  62:	00 00       	nop
  64:	30 c0       	rjmp	.+96     	; 0xc6 <__bad_interrupt>
  66:	00 00       	nop
  68:	2e c0       	rjmp	.+92     	; 0xc6 <__bad_interrupt>
  6a:	00 00       	nop
  6c:	2c c0       	rjmp	.+88     	; 0xc6 <__bad_interrupt>
  6e:	00 00       	nop
  70:	2a c0       	rjmp	.+84     	; 0xc6 <__bad_interrupt>
  72:	00 00       	nop
  74:	28 c0       	rjmp	.+80     	; 0xc6 <__bad_interrupt>
  76:	00 00       	nop
  78:	26 c0       	rjmp	.+76     	; 0xc6 <__bad_interrupt>
  7a:	00 00       	nop
  7c:	24 c0       	rjmp	.+72     	; 0xc6 <__bad_interrupt>
  7e:	00 00       	nop
  80:	22 c0       	rjmp	.+68     	; 0xc6 <__bad_interrupt>
  82:	00 00       	nop
  84:	20 c0       	rjmp	.+64     	; 0xc6 <__bad_interrupt>
  86:	00 00       	nop
  88:	1e c0       	rjmp	.+60     	; 0xc6 <__bad_interrupt>
	...

0000008c <__ctors_end>:
  8c:	11 24       	eor	r1, r1
  8e:	1f be       	out	0x3f, r1	; 63
  90:	cf ef       	ldi	r28, 0xFF	; 255
  92:	d0 e1       	ldi	r29, 0x10	; 16
  94:	de bf       	out	0x3e, r29	; 62
  96:	cd bf       	out	0x3d, r28	; 61

00000098 <__do_copy_data>:
  98:	11 e0       	ldi	r17, 0x01	; 1
  9a:	a0 e0       	ldi	r26, 0x00	; 0
  9c:	b1 e0       	ldi	r27, 0x01	; 1
  9e:	e2 e1       	ldi	r30, 0x12	; 18
  a0:	f8 e0       	ldi	r31, 0x08	; 8
  a2:	00 e0       	ldi	r16, 0x00	; 0
  a4:	0b bf       	out	0x3b, r16	; 59
  a6:	02 c0       	rjmp	.+4      	; 0xac <__do_copy_data+0x14>
  a8:	07 90       	elpm	r0, Z+
  aa:	0d 92       	st	X+, r0
  ac:	a8 3a       	cpi	r26, 0xA8	; 168
  ae:	b1 07       	cpc	r27, r17
  b0:	d9 f7       	brne	.-10     	; 0xa8 <__do_copy_data+0x10>

000000b2 <__do_clear_bss>:
  b2:	21 e0       	ldi	r18, 0x01	; 1
  b4:	a8 ea       	ldi	r26, 0xA8	; 168
  b6:	b1 e0       	ldi	r27, 0x01	; 1
  b8:	01 c0       	rjmp	.+2      	; 0xbc <.do_clear_bss_start>

000000ba <.do_clear_bss_loop>:
  ba:	1d 92       	st	X+, r1

000000bc <.do_clear_bss_start>:
  bc:	ac 3b       	cpi	r26, 0xBC	; 188
  be:	b2 07       	cpc	r27, r18
  c0:	e1 f7       	brne	.-8      	; 0xba <.do_clear_bss_loop>
  c2:	8f d2       	rcall	.+1310   	; 0x5e2 <main>
  c4:	a4 c3       	rjmp	.+1864   	; 0x80e <_exit>

000000c6 <__bad_interrupt>:
  c6:	9c cf       	rjmp	.-200    	; 0x0 <__vectors>

000000c8 <button_init>:
  c8:	e4 e6       	ldi	r30, 0x64	; 100
  ca:	f0 e0       	ldi	r31, 0x00	; 0
  cc:	80 81       	ld	r24, Z
  ce:	80 7e       	andi	r24, 0xE0	; 224
  d0:	80 83       	st	Z, r24
  d2:	08 95       	ret

000000d4 <button_get>:
  d4:	80 91 63 00 	lds	r24, 0x0063	; 0x800063 <__TEXT_REGION_LENGTH__+0x7e0063>
  d8:	8f 71       	andi	r24, 0x1F	; 31
  da:	b1 f0       	breq	.+44     	; 0x108 <button_get+0x34>
  dc:	84 30       	cpi	r24, 0x04	; 4
  de:	71 f0       	breq	.+28     	; 0xfc <button_get+0x28>
  e0:	28 f4       	brcc	.+10     	; 0xec <button_get+0x18>
  e2:	81 30       	cpi	r24, 0x01	; 1
  e4:	99 f0       	breq	.+38     	; 0x10c <button_get+0x38>
  e6:	82 30       	cpi	r24, 0x02	; 2
  e8:	39 f0       	breq	.+14     	; 0xf8 <button_get+0x24>
  ea:	04 c0       	rjmp	.+8      	; 0xf4 <button_get+0x20>
  ec:	88 30       	cpi	r24, 0x08	; 8
  ee:	41 f0       	breq	.+16     	; 0x100 <button_get+0x2c>
  f0:	80 31       	cpi	r24, 0x10	; 16
  f2:	41 f0       	breq	.+16     	; 0x104 <button_get+0x30>
  f4:	80 e0       	ldi	r24, 0x00	; 0
  f6:	0b c0       	rjmp	.+22     	; 0x10e <button_get+0x3a>
  f8:	82 e0       	ldi	r24, 0x02	; 2
  fa:	09 c0       	rjmp	.+18     	; 0x10e <button_get+0x3a>
  fc:	83 e0       	ldi	r24, 0x03	; 3
  fe:	07 c0       	rjmp	.+14     	; 0x10e <button_get+0x3a>
 100:	84 e0       	ldi	r24, 0x04	; 4
 102:	05 c0       	rjmp	.+10     	; 0x10e <button_get+0x3a>
 104:	85 e0       	ldi	r24, 0x05	; 5
 106:	03 c0       	rjmp	.+6      	; 0x10e <button_get+0x3a>
 108:	80 e0       	ldi	r24, 0x00	; 0
 10a:	01 c0       	rjmp	.+2      	; 0x10e <button_get+0x3a>
 10c:	81 e0       	ldi	r24, 0x01	; 1
 10e:	90 91 b7 01 	lds	r25, 0x01B7	; 0x8001b7 <old_but>
 112:	89 17       	cp	r24, r25
 114:	19 f0       	breq	.+6      	; 0x11c <button_get+0x48>
 116:	80 93 b7 01 	sts	0x01B7, r24	; 0x8001b7 <old_but>
 11a:	08 95       	ret
 11c:	80 e0       	ldi	r24, 0x00	; 0
 11e:	08 95       	ret

00000120 <lcd_clk>:
 120:	e2 e6       	ldi	r30, 0x62	; 98
 122:	f0 e0       	ldi	r31, 0x00	; 0
 124:	80 81       	ld	r24, Z
 126:	87 7f       	andi	r24, 0xF7	; 247
 128:	80 83       	st	Z, r24
	#else
		//round up by default
		__ticks_dc = (uint32_t)(ceil(fabs(__tmp)));
	#endif

	__builtin_avr_delay_cycles(__ticks_dc);
 12a:	8f e3       	ldi	r24, 0x3F	; 63
 12c:	9f e1       	ldi	r25, 0x1F	; 31
 12e:	01 97       	sbiw	r24, 0x01	; 1
 130:	f1 f7       	brne	.-4      	; 0x12e <lcd_clk+0xe>
 132:	00 c0       	rjmp	.+0      	; 0x134 <lcd_clk+0x14>
 134:	00 00       	nop
 136:	80 81       	ld	r24, Z
 138:	88 60       	ori	r24, 0x08	; 8
 13a:	80 83       	st	Z, r24
 13c:	8f e3       	ldi	r24, 0x3F	; 63
 13e:	9f e1       	ldi	r25, 0x1F	; 31
 140:	01 97       	sbiw	r24, 0x01	; 1
 142:	f1 f7       	brne	.-4      	; 0x140 <lcd_clk+0x20>
 144:	00 c0       	rjmp	.+0      	; 0x146 <lcd_clk+0x26>
 146:	00 00       	nop
 148:	80 81       	ld	r24, Z
 14a:	87 7f       	andi	r24, 0xF7	; 247
 14c:	80 83       	st	Z, r24
 14e:	8f e3       	ldi	r24, 0x3F	; 63
 150:	9f e1       	ldi	r25, 0x1F	; 31
 152:	01 97       	sbiw	r24, 0x01	; 1
 154:	f1 f7       	brne	.-4      	; 0x152 <lcd_clk+0x32>
 156:	00 c0       	rjmp	.+0      	; 0x158 <lcd_clk+0x38>
 158:	00 00       	nop
 15a:	08 95       	ret

0000015c <lcd_send_cmd>:
 15c:	cf 93       	push	r28
 15e:	df 93       	push	r29
 160:	c8 2f       	mov	r28, r24
 162:	e2 e6       	ldi	r30, 0x62	; 98
 164:	f0 e0       	ldi	r31, 0x00	; 0
 166:	80 81       	ld	r24, Z
 168:	8b 7f       	andi	r24, 0xFB	; 251
 16a:	80 83       	st	Z, r24
 16c:	80 81       	ld	r24, Z
 16e:	8d 7f       	andi	r24, 0xFD	; 253
 170:	80 83       	st	Z, r24
 172:	d1 b1       	in	r29, 0x01	; 1
 174:	8c 2f       	mov	r24, r28
 176:	80 7f       	andi	r24, 0xF0	; 240
 178:	83 b9       	out	0x03, r24	; 3
 17a:	d2 df       	rcall	.-92     	; 0x120 <lcd_clk>
 17c:	20 e1       	ldi	r18, 0x10	; 16
 17e:	c2 9f       	mul	r28, r18
 180:	c0 01       	movw	r24, r0
 182:	11 24       	eor	r1, r1
 184:	83 b9       	out	0x03, r24	; 3
 186:	cc df       	rcall	.-104    	; 0x120 <lcd_clk>
 188:	d3 b9       	out	0x03, r29	; 3
 18a:	df 91       	pop	r29
 18c:	cf 91       	pop	r28
 18e:	08 95       	ret

00000190 <lcd_init>:
 190:	82 b1       	in	r24, 0x02	; 2
 192:	80 6f       	ori	r24, 0xF0	; 240
 194:	82 b9       	out	0x02, r24	; 2
 196:	e1 e6       	ldi	r30, 0x61	; 97
 198:	f0 e0       	ldi	r31, 0x00	; 0
 19a:	80 81       	ld	r24, Z
 19c:	88 60       	ori	r24, 0x08	; 8
 19e:	80 83       	st	Z, r24
 1a0:	80 81       	ld	r24, Z
 1a2:	82 60       	ori	r24, 0x02	; 2
 1a4:	80 83       	st	Z, r24
 1a6:	80 81       	ld	r24, Z
 1a8:	84 60       	ori	r24, 0x04	; 4
 1aa:	80 83       	st	Z, r24
 1ac:	83 b1       	in	r24, 0x03	; 3
 1ae:	80 62       	ori	r24, 0x20	; 32
 1b0:	83 b9       	out	0x03, r24	; 3
 1b2:	b6 df       	rcall	.-148    	; 0x120 <lcd_clk>
 1b4:	b5 df       	rcall	.-150    	; 0x120 <lcd_clk>
 1b6:	b4 df       	rcall	.-152    	; 0x120 <lcd_clk>
 1b8:	88 e2       	ldi	r24, 0x28	; 40
 1ba:	d0 df       	rcall	.-96     	; 0x15c <lcd_send_cmd>
 1bc:	88 e2       	ldi	r24, 0x28	; 40
 1be:	ce df       	rcall	.-100    	; 0x15c <lcd_send_cmd>
 1c0:	88 e2       	ldi	r24, 0x28	; 40
 1c2:	cc df       	rcall	.-104    	; 0x15c <lcd_send_cmd>
 1c4:	8c e0       	ldi	r24, 0x0C	; 12
 1c6:	ca df       	rcall	.-108    	; 0x15c <lcd_send_cmd>
 1c8:	81 e0       	ldi	r24, 0x01	; 1
 1ca:	c8 cf       	rjmp	.-112    	; 0x15c <lcd_send_cmd>
 1cc:	08 95       	ret

000001ce <lcd_data>:
 1ce:	cf 93       	push	r28
 1d0:	df 93       	push	r29
 1d2:	c8 2f       	mov	r28, r24
 1d4:	e2 e6       	ldi	r30, 0x62	; 98
 1d6:	f0 e0       	ldi	r31, 0x00	; 0
 1d8:	80 81       	ld	r24, Z
 1da:	8b 7f       	andi	r24, 0xFB	; 251
 1dc:	80 83       	st	Z, r24
 1de:	80 81       	ld	r24, Z
 1e0:	82 60       	ori	r24, 0x02	; 2
 1e2:	80 83       	st	Z, r24
 1e4:	d1 b1       	in	r29, 0x01	; 1
 1e6:	8c 2f       	mov	r24, r28
 1e8:	80 7f       	andi	r24, 0xF0	; 240
 1ea:	83 b9       	out	0x03, r24	; 3
 1ec:	99 df       	rcall	.-206    	; 0x120 <lcd_clk>
 1ee:	20 e1       	ldi	r18, 0x10	; 16
 1f0:	c2 9f       	mul	r28, r18
 1f2:	c0 01       	movw	r24, r0
 1f4:	11 24       	eor	r1, r1
 1f6:	83 b9       	out	0x03, r24	; 3
 1f8:	93 df       	rcall	.-218    	; 0x120 <lcd_clk>
 1fa:	d3 b9       	out	0x03, r29	; 3
 1fc:	df 91       	pop	r29
 1fe:	cf 91       	pop	r28
 200:	08 95       	ret

00000202 <lcd_write_string>:
 202:	cf 93       	push	r28
 204:	df 93       	push	r29
 206:	ec 01       	movw	r28, r24
 208:	02 c0       	rjmp	.+4      	; 0x20e <lcd_write_string+0xc>
 20a:	e1 df       	rcall	.-62     	; 0x1ce <lcd_data>
 20c:	21 96       	adiw	r28, 0x01	; 1
 20e:	88 81       	ld	r24, Y
 210:	81 11       	cpse	r24, r1
 212:	fb cf       	rjmp	.-10     	; 0x20a <lcd_write_string+0x8>
 214:	df 91       	pop	r29
 216:	cf 91       	pop	r28
 218:	08 95       	ret

0000021a <lcd_cur_posi>:
 21a:	cf 93       	push	r28
 21c:	df 93       	push	r29
 21e:	00 d0       	rcall	.+0      	; 0x220 <lcd_cur_posi+0x6>
 220:	00 d0       	rcall	.+0      	; 0x222 <lcd_cur_posi+0x8>
 222:	cd b7       	in	r28, 0x3d	; 61
 224:	de b7       	in	r29, 0x3e	; 62
 226:	60 31       	cpi	r22, 0x10	; 16
 228:	08 f0       	brcs	.+2      	; 0x22c <lcd_cur_posi+0x12>
 22a:	6f e0       	ldi	r22, 0x0F	; 15
 22c:	90 e8       	ldi	r25, 0x80	; 128
 22e:	99 83       	std	Y+1, r25	; 0x01
 230:	90 ec       	ldi	r25, 0xC0	; 192
 232:	9a 83       	std	Y+2, r25	; 0x02
 234:	90 e9       	ldi	r25, 0x90	; 144
 236:	9b 83       	std	Y+3, r25	; 0x03
 238:	90 ed       	ldi	r25, 0xD0	; 208
 23a:	9c 83       	std	Y+4, r25	; 0x04
 23c:	e1 e0       	ldi	r30, 0x01	; 1
 23e:	f0 e0       	ldi	r31, 0x00	; 0
 240:	ec 0f       	add	r30, r28
 242:	fd 1f       	adc	r31, r29
 244:	e8 0f       	add	r30, r24
 246:	f1 1d       	adc	r31, r1
 248:	80 81       	ld	r24, Z
 24a:	86 0f       	add	r24, r22
 24c:	87 df       	rcall	.-242    	; 0x15c <lcd_send_cmd>
 24e:	0f 90       	pop	r0
 250:	0f 90       	pop	r0
 252:	0f 90       	pop	r0
 254:	0f 90       	pop	r0
 256:	df 91       	pop	r29
 258:	cf 91       	pop	r28
 25a:	08 95       	ret

0000025c <led_init>:
 25c:	80 ef       	ldi	r24, 0xF0	; 240
 25e:	87 bb       	out	0x17, r24	; 23
 260:	81 bb       	out	0x11, r24	; 17
 262:	08 95       	ret

00000264 <led_out>:
 264:	98 2f       	mov	r25, r24
 266:	92 95       	swap	r25
 268:	90 7f       	andi	r25, 0xF0	; 240
 26a:	98 bb       	out	0x18, r25	; 24
 26c:	82 bb       	out	0x12, r24	; 18
 26e:	08 95       	ret

00000270 <move_arrow>:
		else
		counter--;
	}
	else
	timer_counter++;
}
 270:	cf 93       	push	r28
 272:	90 91 b2 01 	lds	r25, 0x01B2	; 0x8001b2 <arrow_pos_current>
 276:	89 0f       	add	r24, r25
 278:	c8 2f       	mov	r28, r24
 27a:	c3 70       	andi	r28, 0x03	; 3
 27c:	60 e0       	ldi	r22, 0x00	; 0
 27e:	89 2f       	mov	r24, r25
 280:	cc df       	rcall	.-104    	; 0x21a <lcd_cur_posi>
 282:	80 e2       	ldi	r24, 0x20	; 32
 284:	a4 df       	rcall	.-184    	; 0x1ce <lcd_data>
 286:	60 e0       	ldi	r22, 0x00	; 0
 288:	8c 2f       	mov	r24, r28
 28a:	c7 df       	rcall	.-114    	; 0x21a <lcd_cur_posi>
 28c:	8e e3       	ldi	r24, 0x3E	; 62
 28e:	9f df       	rcall	.-194    	; 0x1ce <lcd_data>
 290:	c0 93 b2 01 	sts	0x01B2, r28	; 0x8001b2 <arrow_pos_current>
 294:	cf 91       	pop	r28
 296:	08 95       	ret

00000298 <mode1_led_run>:
 298:	cf 93       	push	r28
 29a:	df 93       	push	r29
 29c:	eb 01       	movw	r28, r22
 29e:	20 91 af 01 	lds	r18, 0x01AF	; 0x8001af <counter.2120>
 2a2:	30 91 b0 01 	lds	r19, 0x01B0	; 0x8001b0 <counter.2120+0x1>
 2a6:	82 0f       	add	r24, r18
 2a8:	93 1f       	adc	r25, r19
 2aa:	fc 01       	movw	r30, r24
 2ac:	80 81       	ld	r24, Z
 2ae:	da df       	rcall	.-76     	; 0x264 <led_out>
 2b0:	21 97       	sbiw	r28, 0x01	; 1
 2b2:	80 91 af 01 	lds	r24, 0x01AF	; 0x8001af <counter.2120>
 2b6:	90 91 b0 01 	lds	r25, 0x01B0	; 0x8001b0 <counter.2120+0x1>
 2ba:	c8 17       	cp	r28, r24
 2bc:	d9 07       	cpc	r29, r25
 2be:	29 f4       	brne	.+10     	; 0x2ca <mode1_led_run+0x32>
 2c0:	10 92 b0 01 	sts	0x01B0, r1	; 0x8001b0 <counter.2120+0x1>
 2c4:	10 92 af 01 	sts	0x01AF, r1	; 0x8001af <counter.2120>
 2c8:	05 c0       	rjmp	.+10     	; 0x2d4 <mode1_led_run+0x3c>
 2ca:	01 96       	adiw	r24, 0x01	; 1
 2cc:	90 93 b0 01 	sts	0x01B0, r25	; 0x8001b0 <counter.2120+0x1>
 2d0:	80 93 af 01 	sts	0x01AF, r24	; 0x8001af <counter.2120>
 2d4:	df 91       	pop	r29
 2d6:	cf 91       	pop	r28
 2d8:	08 95       	ret

000002da <__vector_12>:
 2da:	1f 92       	push	r1
 2dc:	0f 92       	push	r0
 2de:	0f b6       	in	r0, 0x3f	; 63
 2e0:	0f 92       	push	r0
 2e2:	11 24       	eor	r1, r1
 2e4:	0b b6       	in	r0, 0x3b	; 59
 2e6:	0f 92       	push	r0
 2e8:	2f 93       	push	r18
 2ea:	3f 93       	push	r19
 2ec:	4f 93       	push	r20
 2ee:	5f 93       	push	r21
 2f0:	6f 93       	push	r22
 2f2:	7f 93       	push	r23
 2f4:	8f 93       	push	r24
 2f6:	9f 93       	push	r25
 2f8:	af 93       	push	r26
 2fa:	bf 93       	push	r27
 2fc:	ef 93       	push	r30
 2fe:	ff 93       	push	r31
 300:	6f e0       	ldi	r22, 0x0F	; 15
 302:	70 e0       	ldi	r23, 0x00	; 0
 304:	80 e0       	ldi	r24, 0x00	; 0
 306:	91 e0       	ldi	r25, 0x01	; 1
 308:	c7 df       	rcall	.-114    	; 0x298 <mode1_led_run>
 30a:	ff 91       	pop	r31
 30c:	ef 91       	pop	r30
 30e:	bf 91       	pop	r27
 310:	af 91       	pop	r26
 312:	9f 91       	pop	r25
 314:	8f 91       	pop	r24
 316:	7f 91       	pop	r23
 318:	6f 91       	pop	r22
 31a:	5f 91       	pop	r21
 31c:	4f 91       	pop	r20
 31e:	3f 91       	pop	r19
 320:	2f 91       	pop	r18
 322:	0f 90       	pop	r0
 324:	0b be       	out	0x3b, r0	; 59
 326:	0f 90       	pop	r0
 328:	0f be       	out	0x3f, r0	; 63
 32a:	0f 90       	pop	r0
 32c:	1f 90       	pop	r1
 32e:	18 95       	reti

00000330 <mode2_get_number>:
 330:	0f 93       	push	r16
 332:	1f 93       	push	r17
 334:	cf 93       	push	r28
 336:	8c 01       	movw	r16, r24
 338:	78 d1       	rcall	.+752    	; 0x62a <matrix_get>
 33a:	c8 2f       	mov	r28, r24
 33c:	8f 3f       	cpi	r24, 0xFF	; 255
 33e:	39 f1       	breq	.+78     	; 0x38e <mode2_get_number+0x5e>
 340:	83 32       	cpi	r24, 0x23	; 35
 342:	39 f1       	breq	.+78     	; 0x392 <mode2_get_number+0x62>
 344:	44 df       	rcall	.-376    	; 0x1ce <lcd_data>
 346:	80 91 ad 01 	lds	r24, 0x01AD	; 0x8001ad <counter.2124>
 34a:	90 91 ae 01 	lds	r25, 0x01AE	; 0x8001ae <counter.2124+0x1>
 34e:	fc 01       	movw	r30, r24
 350:	e8 55       	subi	r30, 0x58	; 88
 352:	fe 4f       	sbci	r31, 0xFE	; 254
 354:	c0 83       	st	Z, r28
 356:	84 30       	cpi	r24, 0x04	; 4
 358:	91 05       	cpc	r25, r1
 35a:	11 f0       	breq	.+4      	; 0x360 <mode2_get_number+0x30>
 35c:	ca 32       	cpi	r28, 0x2A	; 42
 35e:	81 f4       	brne	.+32     	; 0x380 <mode2_get_number+0x50>
 360:	fc 01       	movw	r30, r24
 362:	e8 55       	subi	r30, 0x58	; 88
 364:	fe 4f       	sbci	r31, 0xFE	; 254
 366:	10 82       	st	Z, r1
 368:	88 ea       	ldi	r24, 0xA8	; 168
 36a:	91 e0       	ldi	r25, 0x01	; 1
 36c:	f8 d1       	rcall	.+1008   	; 0x75e <atoi>
 36e:	f8 01       	movw	r30, r16
 370:	91 83       	std	Z+1, r25	; 0x01
 372:	80 83       	st	Z, r24
 374:	10 92 ae 01 	sts	0x01AE, r1	; 0x8001ae <counter.2124+0x1>
 378:	10 92 ad 01 	sts	0x01AD, r1	; 0x8001ad <counter.2124>
 37c:	81 e0       	ldi	r24, 0x01	; 1
 37e:	0a c0       	rjmp	.+20     	; 0x394 <mode2_get_number+0x64>
 380:	01 96       	adiw	r24, 0x01	; 1
 382:	90 93 ae 01 	sts	0x01AE, r25	; 0x8001ae <counter.2124+0x1>
 386:	80 93 ad 01 	sts	0x01AD, r24	; 0x8001ad <counter.2124>
 38a:	80 e0       	ldi	r24, 0x00	; 0
 38c:	03 c0       	rjmp	.+6      	; 0x394 <mode2_get_number+0x64>
 38e:	80 e0       	ldi	r24, 0x00	; 0
 390:	01 c0       	rjmp	.+2      	; 0x394 <mode2_get_number+0x64>
 392:	80 e0       	ldi	r24, 0x00	; 0
 394:	cf 91       	pop	r28
 396:	1f 91       	pop	r17
 398:	0f 91       	pop	r16
 39a:	08 95       	ret

0000039c <mode4_lcd_timer>:
/*void mode2_start_num_count()
{
	timer1_CTCmode_init(128, 25000);
}*/
void mode4_lcd_timer()
{
 39c:	0f 93       	push	r16
 39e:	1f 93       	push	r17
 3a0:	cf 93       	push	r28
 3a2:	df 93       	push	r29
 3a4:	00 d0       	rcall	.+0      	; 0x3a6 <mode4_lcd_timer+0xa>
 3a6:	00 d0       	rcall	.+0      	; 0x3a8 <mode4_lcd_timer+0xc>
 3a8:	cd b7       	in	r28, 0x3d	; 61
 3aa:	de b7       	in	r29, 0x3e	; 62
	char buf[4];
	lcd_cur_posi(LCD_ROW_0,5);
 3ac:	65 e0       	ldi	r22, 0x05	; 5
 3ae:	80 e0       	ldi	r24, 0x00	; 0
 3b0:	34 df       	rcall	.-408    	; 0x21a <lcd_cur_posi>
	if (sev[0]<10)
 3b2:	80 91 b3 01 	lds	r24, 0x01B3	; 0x8001b3 <sev>
 3b6:	8a 30       	cpi	r24, 0x0A	; 10
 3b8:	18 f4       	brcc	.+6      	; 0x3c0 <mode4_lcd_timer+0x24>
	{
		lcd_write_string("0");
 3ba:	8c e6       	ldi	r24, 0x6C	; 108
 3bc:	91 e0       	ldi	r25, 0x01	; 1
 3be:	21 df       	rcall	.-446    	; 0x202 <lcd_write_string>
	}
	lcd_write_string(itoa(sev[0],buf,10));
 3c0:	03 eb       	ldi	r16, 0xB3	; 179
 3c2:	11 e0       	ldi	r17, 0x01	; 1
 3c4:	f8 01       	movw	r30, r16
 3c6:	80 81       	ld	r24, Z
    } else if (__radix < 2 || __radix > 36) {
	*__s = 0;
	return __s;
    } else {
	extern char *__itoa_ncheck (int, char *, unsigned char);
	return __itoa_ncheck (__val, __s, __radix);
 3c8:	4a e0       	ldi	r20, 0x0A	; 10
 3ca:	be 01       	movw	r22, r28
 3cc:	6f 5f       	subi	r22, 0xFF	; 255
 3ce:	7f 4f       	sbci	r23, 0xFF	; 255
 3d0:	90 e0       	ldi	r25, 0x00	; 0
 3d2:	e2 d1       	rcall	.+964    	; 0x798 <__itoa_ncheck>
	lcd_write_string(":");
 3d4:	16 df       	rcall	.-468    	; 0x202 <lcd_write_string>
 3d6:	89 e7       	ldi	r24, 0x79	; 121
 3d8:	91 e0       	ldi	r25, 0x01	; 1
 3da:	13 df       	rcall	.-474    	; 0x202 <lcd_write_string>
	if (sev[1]<10)
 3dc:	f8 01       	movw	r30, r16
 3de:	81 81       	ldd	r24, Z+1	; 0x01
 3e0:	8a 30       	cpi	r24, 0x0A	; 10
	{
		lcd_write_string("0");
 3e2:	18 f4       	brcc	.+6      	; 0x3ea <mode4_lcd_timer+0x4e>
 3e4:	8c e6       	ldi	r24, 0x6C	; 108
 3e6:	91 e0       	ldi	r25, 0x01	; 1
 3e8:	0c df       	rcall	.-488    	; 0x202 <lcd_write_string>
	}
	lcd_write_string(itoa(sev[1],buf,10));
 3ea:	03 eb       	ldi	r16, 0xB3	; 179
 3ec:	11 e0       	ldi	r17, 0x01	; 1
 3ee:	f8 01       	movw	r30, r16
 3f0:	81 81       	ldd	r24, Z+1	; 0x01
 3f2:	4a e0       	ldi	r20, 0x0A	; 10
 3f4:	be 01       	movw	r22, r28
 3f6:	6f 5f       	subi	r22, 0xFF	; 255
 3f8:	7f 4f       	sbci	r23, 0xFF	; 255
 3fa:	90 e0       	ldi	r25, 0x00	; 0
 3fc:	cd d1       	rcall	.+922    	; 0x798 <__itoa_ncheck>
	lcd_write_string(":");
 3fe:	01 df       	rcall	.-510    	; 0x202 <lcd_write_string>
 400:	89 e7       	ldi	r24, 0x79	; 121
 402:	91 e0       	ldi	r25, 0x01	; 1
	if (sev[2]<10)
 404:	fe de       	rcall	.-516    	; 0x202 <lcd_write_string>
 406:	f8 01       	movw	r30, r16
 408:	82 81       	ldd	r24, Z+2	; 0x02
 40a:	8a 30       	cpi	r24, 0x0A	; 10
	{
		lcd_write_string("0");
 40c:	18 f4       	brcc	.+6      	; 0x414 <__LOCK_REGION_LENGTH__+0x14>
 40e:	8c e6       	ldi	r24, 0x6C	; 108
	}
	lcd_write_string(itoa(sev[2],buf,10));
 410:	91 e0       	ldi	r25, 0x01	; 1
 412:	f7 de       	rcall	.-530    	; 0x202 <lcd_write_string>
 414:	80 91 b5 01 	lds	r24, 0x01B5	; 0x8001b5 <sev+0x2>
 418:	4a e0       	ldi	r20, 0x0A	; 10
 41a:	be 01       	movw	r22, r28
 41c:	6f 5f       	subi	r22, 0xFF	; 255
 41e:	7f 4f       	sbci	r23, 0xFF	; 255
 420:	90 e0       	ldi	r25, 0x00	; 0
 422:	ba d1       	rcall	.+884    	; 0x798 <__itoa_ncheck>
 424:	ee de       	rcall	.-548    	; 0x202 <lcd_write_string>

}
 426:	0f 90       	pop	r0
 428:	0f 90       	pop	r0
 42a:	0f 90       	pop	r0
 42c:	0f 90       	pop	r0
 42e:	df 91       	pop	r29
 430:	cf 91       	pop	r28
 432:	1f 91       	pop	r17
 434:	0f 91       	pop	r16
 436:	08 95       	ret

00000438 <mode4_lcd_time_counter>:
void mode4_lcd_time_counter()
{
	if(sev[2]==59)
 438:	80 91 b5 01 	lds	r24, 0x01B5	; 0x8001b5 <sev+0x2>
 43c:	8b 33       	cpi	r24, 0x3B	; 59
 43e:	a9 f4       	brne	.+42     	; 0x46a <mode4_lcd_time_counter+0x32>
	{sev[2]=0;
 440:	e3 eb       	ldi	r30, 0xB3	; 179
 442:	f1 e0       	ldi	r31, 0x01	; 1
 444:	12 82       	std	Z+2, r1	; 0x02
		if (sev[1]==59)
 446:	81 81       	ldd	r24, Z+1	; 0x01
 448:	8b 33       	cpi	r24, 0x3B	; 59
 44a:	59 f4       	brne	.+22     	; 0x462 <mode4_lcd_time_counter+0x2a>
		{sev[1]=0;
 44c:	11 82       	std	Z+1, r1	; 0x01
			
			if (sev[0]==11)
 44e:	80 81       	ld	r24, Z
 450:	8b 30       	cpi	r24, 0x0B	; 11
 452:	19 f4       	brne	.+6      	; 0x45a <mode4_lcd_time_counter+0x22>
			{sev[0]=0;}
 454:	10 92 b3 01 	sts	0x01B3, r1	; 0x8001b3 <sev>
 458:	08 95       	ret
			
			else
			{
				sev[0]++;
 45a:	8f 5f       	subi	r24, 0xFF	; 255
 45c:	80 93 b3 01 	sts	0x01B3, r24	; 0x8001b3 <sev>
 460:	08 95       	ret
			}
		}
		else
		{
		sev[1]++;}
 462:	8f 5f       	subi	r24, 0xFF	; 255
 464:	80 93 b4 01 	sts	0x01B4, r24	; 0x8001b4 <sev+0x1>
 468:	08 95       	ret
	}
	else{
	sev[2]++;}
 46a:	8f 5f       	subi	r24, 0xFF	; 255
 46c:	80 93 b5 01 	sts	0x01B5, r24	; 0x8001b5 <sev+0x2>
 470:	08 95       	ret

00000472 <__vector_15>:
	
}


ISR(TIMER0_COMP_vect)
{
 472:	1f 92       	push	r1
 474:	0f 92       	push	r0
 476:	0f b6       	in	r0, 0x3f	; 63
 478:	0f 92       	push	r0
 47a:	11 24       	eor	r1, r1
 47c:	0b b6       	in	r0, 0x3b	; 59
 47e:	0f 92       	push	r0
 480:	2f 93       	push	r18
 482:	3f 93       	push	r19
 484:	4f 93       	push	r20
 486:	5f 93       	push	r21
 488:	6f 93       	push	r22
 48a:	7f 93       	push	r23
 48c:	8f 93       	push	r24
 48e:	9f 93       	push	r25
 490:	af 93       	push	r26
 492:	bf 93       	push	r27
 494:	ef 93       	push	r30
 496:	ff 93       	push	r31
	//mode2_num_count();
	mode4_lcd_timer();
 498:	81 df       	rcall	.-254    	; 0x39c <mode4_lcd_timer>
	mode4_lcd_time_counter();
 49a:	ce df       	rcall	.-100    	; 0x438 <mode4_lcd_time_counter>
 49c:	ff 91       	pop	r31
	
}
 49e:	ef 91       	pop	r30
 4a0:	bf 91       	pop	r27
 4a2:	af 91       	pop	r26
 4a4:	9f 91       	pop	r25
 4a6:	8f 91       	pop	r24
 4a8:	7f 91       	pop	r23
 4aa:	6f 91       	pop	r22
 4ac:	5f 91       	pop	r21
 4ae:	4f 91       	pop	r20
 4b0:	3f 91       	pop	r19
 4b2:	2f 91       	pop	r18
 4b4:	0f 90       	pop	r0
 4b6:	0b be       	out	0x3b, r0	; 59
 4b8:	0f 90       	pop	r0
 4ba:	0f be       	out	0x3f, r0	; 63
 4bc:	0f 90       	pop	r0
 4be:	1f 90       	pop	r1
 4c0:	18 95       	reti

000004c2 <mode2_start>:
 4c2:	61 e0       	ldi	r22, 0x01	; 1
void mode2_start()
{
	
	uint8_t result;
	getnumer:
		lcd_cur_posi(LCD_ROW_1,1);
 4c4:	81 e0       	ldi	r24, 0x01	; 1
 4c6:	a9 de       	rcall	.-686    	; 0x21a <lcd_cur_posi>
		lcd_write_string("           ");//delete row
 4c8:	8d e7       	ldi	r24, 0x7D	; 125
 4ca:	91 e0       	ldi	r25, 0x01	; 1
 4cc:	9a de       	rcall	.-716    	; 0x202 <lcd_write_string>
		lcd_cur_posi(LCD_ROW_1,1);
 4ce:	61 e0       	ldi	r22, 0x01	; 1
 4d0:	81 e0       	ldi	r24, 0x01	; 1
 4d2:	a3 de       	rcall	.-698    	; 0x21a <lcd_cur_posi>
		lcd_write_string("Start:");		
 4d4:	8e e6       	ldi	r24, 0x6E	; 110
 4d6:	91 e0       	ldi	r25, 0x01	; 1
 4d8:	94 de       	rcall	.-728    	; 0x202 <lcd_write_string>
		while(1)
		{
			result=mode2_get_number(&mode2_num_start);
 4da:	8a eb       	ldi	r24, 0xBA	; 186
 4dc:	91 e0       	ldi	r25, 0x01	; 1
 4de:	28 df       	rcall	.-432    	; 0x330 <mode2_get_number>
			if (result==1)
 4e0:	81 30       	cpi	r24, 0x01	; 1
				break;
		}
		lcd_cur_posi(LCD_ROW_1,1);
 4e2:	d9 f7       	brne	.-10     	; 0x4da <mode2_start+0x18>
 4e4:	61 e0       	ldi	r22, 0x01	; 1
		lcd_write_string("           ");//delete row
 4e6:	99 de       	rcall	.-718    	; 0x21a <lcd_cur_posi>
 4e8:	8d e7       	ldi	r24, 0x7D	; 125
 4ea:	91 e0       	ldi	r25, 0x01	; 1
		lcd_cur_posi(LCD_ROW_1,1);
 4ec:	8a de       	rcall	.-748    	; 0x202 <lcd_write_string>
 4ee:	61 e0       	ldi	r22, 0x01	; 1
 4f0:	81 e0       	ldi	r24, 0x01	; 1
		lcd_write_string("Stop:");
 4f2:	93 de       	rcall	.-730    	; 0x21a <lcd_cur_posi>
 4f4:	85 e7       	ldi	r24, 0x75	; 117
 4f6:	91 e0       	ldi	r25, 0x01	; 1
 4f8:	84 de       	rcall	.-760    	; 0x202 <lcd_write_string>

		while(1)
		{
			result=mode2_get_number(&mode2_num_stop);
 4fa:	88 eb       	ldi	r24, 0xB8	; 184
 4fc:	91 e0       	ldi	r25, 0x01	; 1
 4fe:	18 df       	rcall	.-464    	; 0x330 <mode2_get_number>
 500:	81 30       	cpi	r24, 0x01	; 1
			if (result==1)
 502:	d9 f7       	brne	.-10     	; 0x4fa <mode2_start+0x38>
 504:	20 91 ba 01 	lds	r18, 0x01BA	; 0x8001ba <mode2_num_start>
				break;
		}
		
	
	if(mode2_num_start>=mode2_num_stop)
 508:	30 91 bb 01 	lds	r19, 0x01BB	; 0x8001bb <mode2_num_start+0x1>
 50c:	80 91 b8 01 	lds	r24, 0x01B8	; 0x8001b8 <mode2_num_stop>
 510:	90 91 b9 01 	lds	r25, 0x01B9	; 0x8001b9 <mode2_num_stop+0x1>
 514:	28 17       	cp	r18, r24
 516:	39 07       	cpc	r19, r25
	{
		goto getnumer;
	}
	//start_timer
	lcd_cur_posi(LCD_ROW_1,1);
 518:	a4 f6       	brge	.-88     	; 0x4c2 <mode2_start>
 51a:	61 e0       	ldi	r22, 0x01	; 1
 51c:	81 e0       	ldi	r24, 0x01	; 1
 51e:	7d de       	rcall	.-774    	; 0x21a <lcd_cur_posi>
	lcd_write_string("             ");
 520:	8b e7       	ldi	r24, 0x7B	; 123
 522:	91 e0       	ldi	r25, 0x01	; 1
 524:	6e de       	rcall	.-804    	; 0x202 <lcd_write_string>
 526:	81 e0       	ldi	r24, 0x01	; 1
	mode_2_is_first_run=1;
 528:	80 93 b1 01 	sts	0x01B1, r24	; 0x8001b1 <mode_2_is_first_run>
 52c:	08 95       	ret

0000052e <mode2_stop>:
 52e:	60 e0       	ldi	r22, 0x00	; 0

}

void mode2_stop()
{
	timer0_CTCmode_init(0,0);
 530:	70 e0       	ldi	r23, 0x00	; 0
 532:	80 e0       	ldi	r24, 0x00	; 0
 534:	90 e0       	ldi	r25, 0x00	; 0
 536:	a5 d0       	rcall	.+330    	; 0x682 <timer0_CTCmode_init>
	lcd_cur_posi(LCD_ROW_1,1);
 538:	61 e0       	ldi	r22, 0x01	; 1
 53a:	81 e0       	ldi	r24, 0x01	; 1
 53c:	6e de       	rcall	.-804    	; 0x21a <lcd_cur_posi>
	lcd_write_string("STOP      ");
 53e:	89 e8       	ldi	r24, 0x89	; 137
 540:	91 e0       	ldi	r25, 0x01	; 1
 542:	5f ce       	rjmp	.-834    	; 0x202 <lcd_write_string>
 544:	08 95       	ret

00000546 <mode1_start>:
	
}

void mode1_start()
{
	lcd_cur_posi(LCD_ROW_1,1);
 546:	61 e0       	ldi	r22, 0x01	; 1
 548:	81 e0       	ldi	r24, 0x01	; 1
 54a:	67 de       	rcall	.-818    	; 0x21a <lcd_cur_posi>
	lcd_write_string(" LED      ");
 54c:	84 e9       	ldi	r24, 0x94	; 148
 54e:	91 e0       	ldi	r25, 0x01	; 1
 550:	58 de       	rcall	.-848    	; 0x202 <lcd_write_string>
	timer1_CTCmode_init(256,31249);
 552:	61 e1       	ldi	r22, 0x11	; 17
 554:	7a e7       	ldi	r23, 0x7A	; 122
 556:	80 e0       	ldi	r24, 0x00	; 0
 558:	91 e0       	ldi	r25, 0x01	; 1
 55a:	ca c0       	rjmp	.+404    	; 0x6f0 <timer1_CTCmode_init>
 55c:	08 95       	ret

0000055e <mode1_stop>:
}

void mode1_stop()
{
	timer1_CTCmode_init(0,0);
 55e:	60 e0       	ldi	r22, 0x00	; 0
 560:	70 e0       	ldi	r23, 0x00	; 0
 562:	80 e0       	ldi	r24, 0x00	; 0
 564:	90 e0       	ldi	r25, 0x00	; 0
 566:	c4 d0       	rcall	.+392    	; 0x6f0 <timer1_CTCmode_init>
	led_out(0x00);
 568:	80 e0       	ldi	r24, 0x00	; 0
 56a:	7c de       	rcall	.-776    	; 0x264 <led_out>
	lcd_cur_posi(LCD_ROW_1,1);
 56c:	61 e0       	ldi	r22, 0x01	; 1
 56e:	81 e0       	ldi	r24, 0x01	; 1
 570:	54 de       	rcall	.-856    	; 0x21a <lcd_cur_posi>
	lcd_write_string("STOP      ");
 572:	89 e8       	ldi	r24, 0x89	; 137
 574:	91 e0       	ldi	r25, 0x01	; 1
 576:	45 ce       	rjmp	.-886    	; 0x202 <lcd_write_string>
 578:	08 95       	ret

0000057a <mode4_start>:
 57a:	61 e0       	ldi	r22, 0x01	; 1
	
}	
void mode4_start()	
{
	
	lcd_cur_posi(LCD_ROW_1,1);
 57c:	81 e0       	ldi	r24, 0x01	; 1
 57e:	4d de       	rcall	.-870    	; 0x21a <lcd_cur_posi>
	lcd_write_string(" CLOCK  ");
 580:	8f e9       	ldi	r24, 0x9F	; 159
 582:	91 e0       	ldi	r25, 0x01	; 1
 584:	3e de       	rcall	.-900    	; 0x202 <lcd_write_string>
	timer0_CTCmode_init(128,125);
 586:	6d e7       	ldi	r22, 0x7D	; 125
 588:	70 e0       	ldi	r23, 0x00	; 0
 58a:	80 e8       	ldi	r24, 0x80	; 128
 58c:	90 e0       	ldi	r25, 0x00	; 0
 58e:	79 c0       	rjmp	.+242    	; 0x682 <timer0_CTCmode_init>
 590:	08 95       	ret

00000592 <mode4_stop>:
}
void mode4_stop()
{
	timer0_CTCmode_init(0,0);
 592:	60 e0       	ldi	r22, 0x00	; 0
 594:	70 e0       	ldi	r23, 0x00	; 0
 596:	80 e0       	ldi	r24, 0x00	; 0
 598:	90 e0       	ldi	r25, 0x00	; 0
 59a:	73 d0       	rcall	.+230    	; 0x682 <timer0_CTCmode_init>
	lcd_cur_posi(LCD_ROW_1,1);
 59c:	61 e0       	ldi	r22, 0x01	; 1
 59e:	81 e0       	ldi	r24, 0x01	; 1
 5a0:	3c de       	rcall	.-904    	; 0x21a <lcd_cur_posi>
	lcd_write_string("STOP      ");
 5a2:	89 e8       	ldi	r24, 0x89	; 137
 5a4:	91 e0       	ldi	r25, 0x01	; 1
 5a6:	2d ce       	rjmp	.-934    	; 0x202 <lcd_write_string>
 5a8:	08 95       	ret

000005aa <start>:
}
void start()
{
	switch(arrow_pos_current){
 5aa:	80 91 b2 01 	lds	r24, 0x01B2	; 0x8001b2 <arrow_pos_current>
 5ae:	81 30       	cpi	r24, 0x01	; 1
 5b0:	31 f0       	breq	.+12     	; 0x5be <start+0x14>
 5b2:	18 f0       	brcs	.+6      	; 0x5ba <start+0x10>
 5b4:	83 30       	cpi	r24, 0x03	; 3
 5b6:	29 f0       	breq	.+10     	; 0x5c2 <start+0x18>
 5b8:	08 95       	ret
		case 0:
			mode1_start();
 5ba:	c5 cf       	rjmp	.-118    	; 0x546 <mode1_start>
			break;
		case 1:
			mode2_start();
 5bc:	08 95       	ret
			break;
 5be:	81 cf       	rjmp	.-254    	; 0x4c2 <mode2_start>
		case 2:
			//mode3_start();
			break;
		case 3:
			mode4_start();
 5c0:	08 95       	ret
 5c2:	db cf       	rjmp	.-74     	; 0x57a <mode4_start>
 5c4:	08 95       	ret

000005c6 <stop>:
	}
}

void stop()
{
	switch(arrow_pos_current){
 5c6:	80 91 b2 01 	lds	r24, 0x01B2	; 0x8001b2 <arrow_pos_current>
 5ca:	81 30       	cpi	r24, 0x01	; 1
 5cc:	31 f0       	breq	.+12     	; 0x5da <stop+0x14>
 5ce:	18 f0       	brcs	.+6      	; 0x5d6 <stop+0x10>
 5d0:	83 30       	cpi	r24, 0x03	; 3
 5d2:	29 f0       	breq	.+10     	; 0x5de <stop+0x18>
 5d4:	08 95       	ret
		case 0:
			mode1_stop();
 5d6:	c3 cf       	rjmp	.-122    	; 0x55e <mode1_stop>
			break;
		case 1:
			mode2_stop();	
 5d8:	08 95       	ret
			break;
 5da:	a9 cf       	rjmp	.-174    	; 0x52e <mode2_stop>
		case 2:
			//mode3_stop();
			break;
		case 3:
			mode4_stop();
 5dc:	08 95       	ret
 5de:	d9 cf       	rjmp	.-78     	; 0x592 <mode4_stop>
 5e0:	08 95       	ret

000005e2 <main>:
uint8_t mode_2_is_first_run=0;


int main(void)
{
    led_init();
 5e2:	3c de       	rcall	.-904    	; 0x25c <led_init>
	matrix_init();
 5e4:	1e d0       	rcall	.+60     	; 0x622 <matrix_init>
	lcd_init();
 5e6:	d4 dd       	rcall	.-1112   	; 0x190 <lcd_init>
	button_init();
 5e8:	6f dd       	rcall	.-1314   	; 0xc8 <button_init>
 5ea:	74 dd       	rcall	.-1304   	; 0xd4 <button_get>
    while (1) 
    {
		uint8_t but_var = button_get();
 5ec:	ef e3       	ldi	r30, 0x3F	; 63
 5ee:	ff e1       	ldi	r31, 0x1F	; 31
 5f0:	31 97       	sbiw	r30, 0x01	; 1
 5f2:	f1 f7       	brne	.-4      	; 0x5f0 <main+0xe>
 5f4:	00 c0       	rjmp	.+0      	; 0x5f6 <main+0x14>
 5f6:	00 00       	nop
 5f8:	82 30       	cpi	r24, 0x02	; 2
 5fa:	61 f0       	breq	.+24     	; 0x614 <main+0x32>
		_delay_ms(2);
		switch(but_var){
 5fc:	18 f4       	brcc	.+6      	; 0x604 <main+0x22>
 5fe:	81 30       	cpi	r24, 0x01	; 1
 600:	31 f0       	breq	.+12     	; 0x60e <main+0x2c>
 602:	f3 cf       	rjmp	.-26     	; 0x5ea <main+0x8>
 604:	83 30       	cpi	r24, 0x03	; 3
 606:	49 f0       	breq	.+18     	; 0x61a <main+0x38>
 608:	84 30       	cpi	r24, 0x04	; 4
 60a:	49 f0       	breq	.+18     	; 0x61e <main+0x3c>
 60c:	ee cf       	rjmp	.-36     	; 0x5ea <main+0x8>
 60e:	81 e0       	ldi	r24, 0x01	; 1
			case 1:
				move_arrow(ARROW_DIRECT_DOWN);
 610:	2f de       	rcall	.-930    	; 0x270 <move_arrow>
 612:	eb cf       	rjmp	.-42     	; 0x5ea <main+0x8>
				break;
			case 2:
				move_arrow(ARROW_DIRECT_UP);
 614:	8f ef       	ldi	r24, 0xFF	; 255
 616:	2c de       	rcall	.-936    	; 0x270 <move_arrow>
 618:	e8 cf       	rjmp	.-48     	; 0x5ea <main+0x8>
				break;
 61a:	c7 df       	rcall	.-114    	; 0x5aa <start>
			case 3://start mode
				start();
 61c:	e6 cf       	rjmp	.-52     	; 0x5ea <main+0x8>
 61e:	d3 df       	rcall	.-90     	; 0x5c6 <stop>
				break;
 620:	e4 cf       	rjmp	.-56     	; 0x5ea <main+0x8>

00000622 <matrix_init>:
 622:	84 b3       	in	r24, 0x14	; 20
 624:	88 67       	ori	r24, 0x78	; 120
 626:	84 bb       	out	0x14, r24	; 20
 628:	08 95       	ret

0000062a <matrix_get>:
 62a:	98 e0       	ldi	r25, 0x08	; 8
 62c:	e0 e0       	ldi	r30, 0x00	; 0
 62e:	15 c0       	rjmp	.+42     	; 0x65a <matrix_get+0x30>
 630:	95 bb       	out	0x15, r25	; 21
 632:	83 b3       	in	r24, 0x13	; 19
 634:	87 70       	andi	r24, 0x07	; 7
 636:	af e1       	ldi	r26, 0x1F	; 31
 638:	be e4       	ldi	r27, 0x4E	; 78
 63a:	11 97       	sbiw	r26, 0x01	; 1
 63c:	f1 f7       	brne	.-4      	; 0x63a <matrix_get+0x10>
 63e:	00 c0       	rjmp	.+0      	; 0x640 <matrix_get+0x16>
 640:	00 00       	nop
 642:	86 30       	cpi	r24, 0x06	; 6
 644:	81 f0       	breq	.+32     	; 0x666 <matrix_get+0x3c>
 646:	21 e0       	ldi	r18, 0x01	; 1
 648:	2e 0f       	add	r18, r30
 64a:	85 30       	cpi	r24, 0x05	; 5
 64c:	49 f0       	breq	.+18     	; 0x660 <matrix_get+0x36>
 64e:	22 e0       	ldi	r18, 0x02	; 2
 650:	2e 0f       	add	r18, r30
 652:	83 30       	cpi	r24, 0x03	; 3
 654:	39 f0       	breq	.+14     	; 0x664 <matrix_get+0x3a>
 656:	ed 5f       	subi	r30, 0xFD	; 253
 658:	99 0f       	add	r25, r25
 65a:	91 34       	cpi	r25, 0x41	; 65
 65c:	48 f3       	brcs	.-46     	; 0x630 <matrix_get+0x6>
 65e:	03 c0       	rjmp	.+6      	; 0x666 <matrix_get+0x3c>
 660:	e2 2f       	mov	r30, r18
 662:	01 c0       	rjmp	.+2      	; 0x666 <matrix_get+0x3c>
 664:	e2 2f       	mov	r30, r18
 666:	80 91 b6 01 	lds	r24, 0x01B6	; 0x8001b6 <matrix_old_key.1742>
 66a:	e8 17       	cp	r30, r24
 66c:	39 f0       	breq	.+14     	; 0x67c <matrix_get+0x52>
 66e:	e0 93 b6 01 	sts	0x01B6, r30	; 0x8001b6 <matrix_old_key.1742>
 672:	f0 e0       	ldi	r31, 0x00	; 0
 674:	e1 5f       	subi	r30, 0xF1	; 241
 676:	fe 4f       	sbci	r31, 0xFE	; 254
 678:	80 81       	ld	r24, Z
 67a:	08 95       	ret
 67c:	80 91 1b 01 	lds	r24, 0x011B	; 0x80011b <matrix_map+0xc>
 680:	08 95       	ret

00000682 <timer0_CTCmode_init>:
{
	//2 ms /8 MHz/ prescaler 128/ top 125
	//2 ms /8 MHz/ prescaler 64/ top 250
	//if prescaler_num_input == -1 --> STOP timer
	
	int i=0;
 682:	20 e0       	ldi	r18, 0x00	; 0
 684:	30 e0       	ldi	r19, 0x00	; 0
	while(i<8)
 686:	10 c0       	rjmp	.+32     	; 0x6a8 <timer0_CTCmode_init+0x26>
	{
		if(prescaler_num_input==pres_timer0[i].prescaler_num)break;
 688:	f9 01       	movw	r30, r18
 68a:	ee 0f       	add	r30, r30
 68c:	ff 1f       	adc	r31, r31
 68e:	ee 0f       	add	r30, r30
 690:	ff 1f       	adc	r31, r31
 692:	e2 0f       	add	r30, r18
 694:	f3 1f       	adc	r31, r19
 696:	ec 5b       	subi	r30, 0xBC	; 188
 698:	fe 4f       	sbci	r31, 0xFE	; 254
 69a:	40 81       	ld	r20, Z
 69c:	51 81       	ldd	r21, Z+1	; 0x01
 69e:	48 17       	cp	r20, r24
 6a0:	59 07       	cpc	r21, r25
 6a2:	29 f0       	breq	.+10     	; 0x6ae <timer0_CTCmode_init+0x2c>
		i++;
 6a4:	2f 5f       	subi	r18, 0xFF	; 255
 6a6:	3f 4f       	sbci	r19, 0xFF	; 255
	//2 ms /8 MHz/ prescaler 128/ top 125
	//2 ms /8 MHz/ prescaler 64/ top 250
	//if prescaler_num_input == -1 --> STOP timer
	
	int i=0;
	while(i<8)
 6a8:	28 30       	cpi	r18, 0x08	; 8
 6aa:	31 05       	cpc	r19, r1
 6ac:	6c f3       	brlt	.-38     	; 0x688 <timer0_CTCmode_init+0x6>
	{
		if(prescaler_num_input==pres_timer0[i].prescaler_num)break;
		i++;
	}
	
	TCCR0=(pres_timer0[i].CSn2_val<<CS02)|
 6ae:	f9 01       	movw	r30, r18
 6b0:	ee 0f       	add	r30, r30
 6b2:	ff 1f       	adc	r31, r31
 6b4:	ee 0f       	add	r30, r30
 6b6:	ff 1f       	adc	r31, r31
 6b8:	2e 0f       	add	r18, r30
 6ba:	3f 1f       	adc	r19, r31
 6bc:	f9 01       	movw	r30, r18
 6be:	ec 5b       	subi	r30, 0xBC	; 188
 6c0:	fe 4f       	sbci	r31, 0xFE	; 254
 6c2:	82 81       	ldd	r24, Z+2	; 0x02
 6c4:	90 e0       	ldi	r25, 0x00	; 0
 6c6:	9c 01       	movw	r18, r24
 6c8:	22 0f       	add	r18, r18
 6ca:	33 1f       	adc	r19, r19
 6cc:	22 0f       	add	r18, r18
 6ce:	33 1f       	adc	r19, r19
	(pres_timer0[i].CSn1_val<<CS01)|
 6d0:	93 81       	ldd	r25, Z+3	; 0x03
 6d2:	89 2f       	mov	r24, r25
 6d4:	90 e0       	ldi	r25, 0x00	; 0
 6d6:	88 0f       	add	r24, r24
 6d8:	99 1f       	adc	r25, r25
	(pres_timer0[i].CSn0_val<<CS00)|
 6da:	94 81       	ldd	r25, Z+4	; 0x04
	{
		if(prescaler_num_input==pres_timer0[i].prescaler_num)break;
		i++;
	}
	
	TCCR0=(pres_timer0[i].CSn2_val<<CS02)|
 6dc:	82 2b       	or	r24, r18
 6de:	89 2b       	or	r24, r25
 6e0:	88 60       	ori	r24, 0x08	; 8
 6e2:	83 bf       	out	0x33, r24	; 51
	(pres_timer0[i].CSn1_val<<CS01)|
	(pres_timer0[i].CSn0_val<<CS00)|
	(1<<WGM01);
	
	TCNT0=0;
 6e4:	12 be       	out	0x32, r1	; 50
	TIMSK=(1<<OCIE0); //• Bit 1 – OCIE0 TimerCounter0 Output Compare Match Interrupt Enable
 6e6:	82 e0       	ldi	r24, 0x02	; 2
 6e8:	87 bf       	out	0x37, r24	; 55
	OCR0=top_val;
 6ea:	61 bf       	out	0x31, r22	; 49
	sei();
 6ec:	78 94       	sei
 6ee:	08 95       	ret

000006f0 <timer1_CTCmode_init>:
void timer1_CTCmode_init(int prescaler_num_input, int top_val)
{

	//if prescaler_num_input == -1 --> STOP timer
	
	int i=0;
 6f0:	20 e0       	ldi	r18, 0x00	; 0
 6f2:	30 e0       	ldi	r19, 0x00	; 0
	while(i<8)
 6f4:	10 c0       	rjmp	.+32     	; 0x716 <timer1_CTCmode_init+0x26>
	{
		if(prescaler_num_input==pres_timer1_2_3[i].prescaler_num)break;
 6f6:	f9 01       	movw	r30, r18
 6f8:	ee 0f       	add	r30, r30
 6fa:	ff 1f       	adc	r31, r31
 6fc:	ee 0f       	add	r30, r30
 6fe:	ff 1f       	adc	r31, r31
 700:	e2 0f       	add	r30, r18
 702:	f3 1f       	adc	r31, r19
 704:	e4 5e       	subi	r30, 0xE4	; 228
 706:	fe 4f       	sbci	r31, 0xFE	; 254
 708:	40 81       	ld	r20, Z
 70a:	51 81       	ldd	r21, Z+1	; 0x01
 70c:	48 17       	cp	r20, r24
 70e:	59 07       	cpc	r21, r25
 710:	29 f0       	breq	.+10     	; 0x71c <timer1_CTCmode_init+0x2c>
		i++;
 712:	2f 5f       	subi	r18, 0xFF	; 255
 714:	3f 4f       	sbci	r19, 0xFF	; 255
{

	//if prescaler_num_input == -1 --> STOP timer
	
	int i=0;
	while(i<8)
 716:	28 30       	cpi	r18, 0x08	; 8
 718:	31 05       	cpc	r19, r1
 71a:	6c f3       	brlt	.-38     	; 0x6f6 <timer1_CTCmode_init+0x6>
	{
		if(prescaler_num_input==pres_timer1_2_3[i].prescaler_num)break;
		i++;
	}
	TCCR1B= (pres_timer1_2_3[i].CSn2_val<<CS12)|
 71c:	f9 01       	movw	r30, r18
 71e:	ee 0f       	add	r30, r30
 720:	ff 1f       	adc	r31, r31
 722:	ee 0f       	add	r30, r30
 724:	ff 1f       	adc	r31, r31
 726:	2e 0f       	add	r18, r30
 728:	3f 1f       	adc	r19, r31
 72a:	f9 01       	movw	r30, r18
 72c:	e4 5e       	subi	r30, 0xE4	; 228
 72e:	fe 4f       	sbci	r31, 0xFE	; 254
 730:	82 81       	ldd	r24, Z+2	; 0x02
 732:	90 e0       	ldi	r25, 0x00	; 0
 734:	9c 01       	movw	r18, r24
 736:	22 0f       	add	r18, r18
 738:	33 1f       	adc	r19, r19
 73a:	22 0f       	add	r18, r18
 73c:	33 1f       	adc	r19, r19
	(pres_timer1_2_3[i].CSn1_val<<CS11)|
 73e:	93 81       	ldd	r25, Z+3	; 0x03
 740:	89 2f       	mov	r24, r25
 742:	90 e0       	ldi	r25, 0x00	; 0
 744:	88 0f       	add	r24, r24
 746:	99 1f       	adc	r25, r25
	(pres_timer1_2_3[i].CSn0_val<<CS10)|
 748:	94 81       	ldd	r25, Z+4	; 0x04
	while(i<8)
	{
		if(prescaler_num_input==pres_timer1_2_3[i].prescaler_num)break;
		i++;
	}
	TCCR1B= (pres_timer1_2_3[i].CSn2_val<<CS12)|
 74a:	82 2b       	or	r24, r18
 74c:	89 2b       	or	r24, r25
 74e:	88 60       	ori	r24, 0x08	; 8
 750:	8e bd       	out	0x2e, r24	; 46
	(pres_timer1_2_3[i].CSn1_val<<CS11)|
	(pres_timer1_2_3[i].CSn0_val<<CS10)|
	(1<<WGM12);
	
	TIMSK=(1<<TOIE0); 
 752:	81 e0       	ldi	r24, 0x01	; 1
 754:	87 bf       	out	0x37, r24	; 55
	OCR1A=top_val;
 756:	7b bd       	out	0x2b, r23	; 43
 758:	6a bd       	out	0x2a, r22	; 42
	sei();
 75a:	78 94       	sei
 75c:	08 95       	ret

0000075e <atoi>:
 75e:	fc 01       	movw	r30, r24
 760:	88 27       	eor	r24, r24
 762:	99 27       	eor	r25, r25
 764:	e8 94       	clt
 766:	21 91       	ld	r18, Z+
 768:	20 32       	cpi	r18, 0x20	; 32
 76a:	e9 f3       	breq	.-6      	; 0x766 <atoi+0x8>
 76c:	29 30       	cpi	r18, 0x09	; 9
 76e:	10 f0       	brcs	.+4      	; 0x774 <atoi+0x16>
 770:	2e 30       	cpi	r18, 0x0E	; 14
 772:	c8 f3       	brcs	.-14     	; 0x766 <atoi+0x8>
 774:	2b 32       	cpi	r18, 0x2B	; 43
 776:	39 f0       	breq	.+14     	; 0x786 <atoi+0x28>
 778:	2d 32       	cpi	r18, 0x2D	; 45
 77a:	31 f4       	brne	.+12     	; 0x788 <atoi+0x2a>
 77c:	68 94       	set
 77e:	03 c0       	rjmp	.+6      	; 0x786 <atoi+0x28>
 780:	15 d0       	rcall	.+42     	; 0x7ac <__mulhi_const_10>
 782:	82 0f       	add	r24, r18
 784:	91 1d       	adc	r25, r1
 786:	21 91       	ld	r18, Z+
 788:	20 53       	subi	r18, 0x30	; 48
 78a:	2a 30       	cpi	r18, 0x0A	; 10
 78c:	c8 f3       	brcs	.-14     	; 0x780 <atoi+0x22>
 78e:	1e f4       	brtc	.+6      	; 0x796 <atoi+0x38>
 790:	90 95       	com	r25
 792:	81 95       	neg	r24
 794:	9f 4f       	sbci	r25, 0xFF	; 255
 796:	08 95       	ret

00000798 <__itoa_ncheck>:
 798:	bb 27       	eor	r27, r27
 79a:	4a 30       	cpi	r20, 0x0A	; 10
 79c:	31 f4       	brne	.+12     	; 0x7aa <__itoa_ncheck+0x12>
 79e:	99 23       	and	r25, r25
 7a0:	22 f4       	brpl	.+8      	; 0x7aa <__itoa_ncheck+0x12>
 7a2:	bd e2       	ldi	r27, 0x2D	; 45
 7a4:	90 95       	com	r25
 7a6:	81 95       	neg	r24
 7a8:	9f 4f       	sbci	r25, 0xFF	; 255
 7aa:	09 c0       	rjmp	.+18     	; 0x7be <__utoa_common>

000007ac <__mulhi_const_10>:
 7ac:	7a e0       	ldi	r23, 0x0A	; 10
 7ae:	97 9f       	mul	r25, r23
 7b0:	90 2d       	mov	r25, r0
 7b2:	87 9f       	mul	r24, r23
 7b4:	80 2d       	mov	r24, r0
 7b6:	91 0d       	add	r25, r1
 7b8:	11 24       	eor	r1, r1
 7ba:	08 95       	ret

000007bc <__utoa_ncheck>:
 7bc:	bb 27       	eor	r27, r27

000007be <__utoa_common>:
 7be:	fb 01       	movw	r30, r22
 7c0:	55 27       	eor	r21, r21
 7c2:	aa 27       	eor	r26, r26
 7c4:	88 0f       	add	r24, r24
 7c6:	99 1f       	adc	r25, r25
 7c8:	aa 1f       	adc	r26, r26
 7ca:	a4 17       	cp	r26, r20
 7cc:	10 f0       	brcs	.+4      	; 0x7d2 <__utoa_common+0x14>
 7ce:	a4 1b       	sub	r26, r20
 7d0:	83 95       	inc	r24
 7d2:	50 51       	subi	r21, 0x10	; 16
 7d4:	b9 f7       	brne	.-18     	; 0x7c4 <__utoa_common+0x6>
 7d6:	a0 5d       	subi	r26, 0xD0	; 208
 7d8:	aa 33       	cpi	r26, 0x3A	; 58
 7da:	08 f0       	brcs	.+2      	; 0x7de <__utoa_common+0x20>
 7dc:	a9 5d       	subi	r26, 0xD9	; 217
 7de:	a1 93       	st	Z+, r26
 7e0:	00 97       	sbiw	r24, 0x00	; 0
 7e2:	79 f7       	brne	.-34     	; 0x7c2 <__utoa_common+0x4>
 7e4:	b1 11       	cpse	r27, r1
 7e6:	b1 93       	st	Z+, r27
 7e8:	11 92       	st	Z+, r1
 7ea:	cb 01       	movw	r24, r22
 7ec:	00 c0       	rjmp	.+0      	; 0x7ee <strrev>

000007ee <strrev>:
 7ee:	dc 01       	movw	r26, r24
 7f0:	fc 01       	movw	r30, r24
 7f2:	67 2f       	mov	r22, r23
 7f4:	71 91       	ld	r23, Z+
 7f6:	77 23       	and	r23, r23
 7f8:	e1 f7       	brne	.-8      	; 0x7f2 <strrev+0x4>
 7fa:	32 97       	sbiw	r30, 0x02	; 2
 7fc:	04 c0       	rjmp	.+8      	; 0x806 <strrev+0x18>
 7fe:	7c 91       	ld	r23, X
 800:	6d 93       	st	X+, r22
 802:	70 83       	st	Z, r23
 804:	62 91       	ld	r22, -Z
 806:	ae 17       	cp	r26, r30
 808:	bf 07       	cpc	r27, r31
 80a:	c8 f3       	brcs	.-14     	; 0x7fe <strrev+0x10>
 80c:	08 95       	ret

0000080e <_exit>:
 80e:	f8 94       	cli

00000810 <__stop_program>:
 810:	ff cf       	rjmp	.-2      	; 0x810 <__stop_program>
